#include <math.h>
#include <stdio.h>
#include <stdlib.h>
#include <string.h>

int main(){
  int n,i,cd[50];
  char dc[50][32]={'0','0','0'};
  scanf("%d",&n);
  for(i=0;i<n+1;i++){
	  gets(dc[i]);
     cd[i]=strlen(dc[i]);
  }
  for(i=0;i<n+1;i++){
   if(dc[i][cd[i]-1]=='g')dc[i][cd[i]-3]=0;
   if(dc[i][cd[i]-1]=='r')dc[i][cd[i]-2]=0;      
   if(dc[i][cd[i]-1]=='y')dc[i][cd[i]-2]=0;
  }
  for(i=0;i<n+1;i++)
  printf("%s\n",dc[i]);
     
	  return 0;
}

