; ModuleID = '57/2948.c'
source_filename = "57/2948.c"
target datalayout = "e-m:e-p270:32:32-p271:32:32-p272:64:64-i64:64-f80:128-n8:16:32:64-S128"
target triple = "x86_64-pc-linux-gnu"

@.str = private unnamed_addr constant [3 x i8] c"%d\00", align 1
@.str.1 = private unnamed_addr constant [4 x i8] c"%s\0A\00", align 1

; Function Attrs: noinline nounwind uwtable
define dso_local i32 @main() #0 {
  %1 = alloca i32, align 4
  %2 = alloca i32, align 4
  %3 = alloca i32, align 4
  %4 = alloca [50 x i32], align 16
  %5 = alloca [50 x [32 x i8]], align 16
  store i32 0, i32* %1, align 4
  %6 = bitcast [50 x [32 x i8]]* %5 to i8*
  call void @llvm.memset.p0i8.i64(i8* align 16 %6, i8 0, i64 1600, i1 false)
  %7 = bitcast i8* %6 to <{ <{ i8, i8, i8, [29 x i8] }>, [49 x <{ i8, i8, i8, [29 x i8] }>] }>*
  %8 = getelementptr inbounds <{ <{ i8, i8, i8, [29 x i8] }>, [49 x <{ i8, i8, i8, [29 x i8] }>] }>, <{ <{ i8, i8, i8, [29 x i8] }>, [49 x <{ i8, i8, i8, [29 x i8] }>] }>* %7, i32 0, i32 0
  %9 = getelementptr inbounds <{ i8, i8, i8, [29 x i8] }>, <{ i8, i8, i8, [29 x i8] }>* %8, i32 0, i32 0
  store i8 48, i8* %9, align 16
  %10 = getelementptr inbounds <{ i8, i8, i8, [29 x i8] }>, <{ i8, i8, i8, [29 x i8] }>* %8, i32 0, i32 1
  store i8 48, i8* %10, align 1
  %11 = getelementptr inbounds <{ i8, i8, i8, [29 x i8] }>, <{ i8, i8, i8, [29 x i8] }>* %8, i32 0, i32 2
  store i8 48, i8* %11, align 2
  %12 = call i32 (i8*, ...) @__isoc99_scanf(i8* getelementptr inbounds ([3 x i8], [3 x i8]* @.str, i64 0, i64 0), i32* %2)
  store i32 0, i32* %3, align 4
  br label %13

13:                                               ; preds = %33, %0
  %14 = load i32, i32* %3, align 4
  %15 = load i32, i32* %2, align 4
  %16 = add nsw i32 %15, 1
  %17 = icmp slt i32 %14, %16
  br i1 %17, label %18, label %36

18:                                               ; preds = %13
  %19 = load i32, i32* %3, align 4
  %20 = sext i32 %19 to i64
  %21 = getelementptr inbounds [50 x [32 x i8]], [50 x [32 x i8]]* %5, i64 0, i64 %20
  %22 = getelementptr inbounds [32 x i8], [32 x i8]* %21, i64 0, i64 0
  %23 = call i32 (i8*, ...) bitcast (i32 (...)* @gets to i32 (i8*, ...)*)(i8* %22)
  %24 = load i32, i32* %3, align 4
  %25 = sext i32 %24 to i64
  %26 = getelementptr inbounds [50 x [32 x i8]], [50 x [32 x i8]]* %5, i64 0, i64 %25
  %27 = getelementptr inbounds [32 x i8], [32 x i8]* %26, i64 0, i64 0
  %28 = call i64 @strlen(i8* %27) #4
  %29 = trunc i64 %28 to i32
  %30 = load i32, i32* %3, align 4
  %31 = sext i32 %30 to i64
  %32 = getelementptr inbounds [50 x i32], [50 x i32]* %4, i64 0, i64 %31
  store i32 %29, i32* %32, align 4
  br label %33

33:                                               ; preds = %18
  %34 = load i32, i32* %3, align 4
  %35 = add nsw i32 %34, 1
  store i32 %35, i32* %3, align 4
  br label %13

36:                                               ; preds = %13
  store i32 0, i32* %3, align 4
  br label %37

37:                                               ; preds = %118, %36
  %38 = load i32, i32* %3, align 4
  %39 = load i32, i32* %2, align 4
  %40 = add nsw i32 %39, 1
  %41 = icmp slt i32 %38, %40
  br i1 %41, label %42, label %121

42:                                               ; preds = %37
  %43 = load i32, i32* %3, align 4
  %44 = sext i32 %43 to i64
  %45 = getelementptr inbounds [50 x [32 x i8]], [50 x [32 x i8]]* %5, i64 0, i64 %44
  %46 = load i32, i32* %3, align 4
  %47 = sext i32 %46 to i64
  %48 = getelementptr inbounds [50 x i32], [50 x i32]* %4, i64 0, i64 %47
  %49 = load i32, i32* %48, align 4
  %50 = sub nsw i32 %49, 1
  %51 = sext i32 %50 to i64
  %52 = getelementptr inbounds [32 x i8], [32 x i8]* %45, i64 0, i64 %51
  %53 = load i8, i8* %52, align 1
  %54 = sext i8 %53 to i32
  %55 = icmp eq i32 %54, 103
  br i1 %55, label %56, label %67

56:                                               ; preds = %42
  %57 = load i32, i32* %3, align 4
  %58 = sext i32 %57 to i64
  %59 = getelementptr inbounds [50 x [32 x i8]], [50 x [32 x i8]]* %5, i64 0, i64 %58
  %60 = load i32, i32* %3, align 4
  %61 = sext i32 %60 to i64
  %62 = getelementptr inbounds [50 x i32], [50 x i32]* %4, i64 0, i64 %61
  %63 = load i32, i32* %62, align 4
  %64 = sub nsw i32 %63, 3
  %65 = sext i32 %64 to i64
  %66 = getelementptr inbounds [32 x i8], [32 x i8]* %59, i64 0, i64 %65
  store i8 0, i8* %66, align 1
  br label %67

67:                                               ; preds = %56, %42
  %68 = load i32, i32* %3, align 4
  %69 = sext i32 %68 to i64
  %70 = getelementptr inbounds [50 x [32 x i8]], [50 x [32 x i8]]* %5, i64 0, i64 %69
  %71 = load i32, i32* %3, align 4
  %72 = sext i32 %71 to i64
  %73 = getelementptr inbounds [50 x i32], [50 x i32]* %4, i64 0, i64 %72
  %74 = load i32, i32* %73, align 4
  %75 = sub nsw i32 %74, 1
  %76 = sext i32 %75 to i64
  %77 = getelementptr inbounds [32 x i8], [32 x i8]* %70, i64 0, i64 %76
  %78 = load i8, i8* %77, align 1
  %79 = sext i8 %78 to i32
  %80 = icmp eq i32 %79, 114
  br i1 %80, label %81, label %92

81:                                               ; preds = %67
  %82 = load i32, i32* %3, align 4
  %83 = sext i32 %82 to i64
  %84 = getelementptr inbounds [50 x [32 x i8]], [50 x [32 x i8]]* %5, i64 0, i64 %83
  %85 = load i32, i32* %3, align 4
  %86 = sext i32 %85 to i64
  %87 = getelementptr inbounds [50 x i32], [50 x i32]* %4, i64 0, i64 %86
  %88 = load i32, i32* %87, align 4
  %89 = sub nsw i32 %88, 2
  %90 = sext i32 %89 to i64
  %91 = getelementptr inbounds [32 x i8], [32 x i8]* %84, i64 0, i64 %90
  store i8 0, i8* %91, align 1
  br label %92

92:                                               ; preds = %81, %67
  %93 = load i32, i32* %3, align 4
  %94 = sext i32 %93 to i64
  %95 = getelementptr inbounds [50 x [32 x i8]], [50 x [32 x i8]]* %5, i64 0, i64 %94
  %96 = load i32, i32* %3, align 4
  %97 = sext i32 %96 to i64
  %98 = getelementptr inbounds [50 x i32], [50 x i32]* %4, i64 0, i64 %97
  %99 = load i32, i32* %98, align 4
  %100 = sub nsw i32 %99, 1
  %101 = sext i32 %100 to i64
  %102 = getelementptr inbounds [32 x i8], [32 x i8]* %95, i64 0, i64 %101
  %103 = load i8, i8* %102, align 1
  %104 = sext i8 %103 to i32
  %105 = icmp eq i32 %104, 121
  br i1 %105, label %106, label %117

106:                                              ; preds = %92
  %107 = load i32, i32* %3, align 4
  %108 = sext i32 %107 to i64
  %109 = getelementptr inbounds [50 x [32 x i8]], [50 x [32 x i8]]* %5, i64 0, i64 %108
  %110 = load i32, i32* %3, align 4
  %111 = sext i32 %110 to i64
  %112 = getelementptr inbounds [50 x i32], [50 x i32]* %4, i64 0, i64 %111
  %113 = load i32, i32* %112, align 4
  %114 = sub nsw i32 %113, 2
  %115 = sext i32 %114 to i64
  %116 = getelementptr inbounds [32 x i8], [32 x i8]* %109, i64 0, i64 %115
  store i8 0, i8* %116, align 1
  br label %117

117:                                              ; preds = %106, %92
  br label %118

118:                                              ; preds = %117
  %119 = load i32, i32* %3, align 4
  %120 = add nsw i32 %119, 1
  store i32 %120, i32* %3, align 4
  br label %37

121:                                              ; preds = %37
  store i32 0, i32* %3, align 4
  br label %122

122:                                              ; preds = %133, %121
  %123 = load i32, i32* %3, align 4
  %124 = load i32, i32* %2, align 4
  %125 = add nsw i32 %124, 1
  %126 = icmp slt i32 %123, %125
  br i1 %126, label %127, label %136

127:                                              ; preds = %122
  %128 = load i32, i32* %3, align 4
  %129 = sext i32 %128 to i64
  %130 = getelementptr inbounds [50 x [32 x i8]], [50 x [32 x i8]]* %5, i64 0, i64 %129
  %131 = getelementptr inbounds [32 x i8], [32 x i8]* %130, i64 0, i64 0
  %132 = call i32 (i8*, ...) @printf(i8* getelementptr inbounds ([4 x i8], [4 x i8]* @.str.1, i64 0, i64 0), i8* %131)
  br label %133

133:                                              ; preds = %127
  %134 = load i32, i32* %3, align 4
  %135 = add nsw i32 %134, 1
  store i32 %135, i32* %3, align 4
  br label %122

136:                                              ; preds = %122
  ret i32 0
}

; Function Attrs: argmemonly nounwind willreturn
declare void @llvm.memset.p0i8.i64(i8* nocapture writeonly, i8, i64, i1 immarg) #1

declare dso_local i32 @__isoc99_scanf(i8*, ...) #2

declare dso_local i32 @gets(...) #2

; Function Attrs: nounwind readonly
declare dso_local i64 @strlen(i8*) #3

declare dso_local i32 @printf(i8*, ...) #2


!llvm.module.flags = !{!0}
!llvm.ident = !{!1}

!0 = !{i32 1, !"wchar_size", i32 4}
!1 = !{!"clang version 10.0.0-4ubuntu1 "}
