; ModuleID = 'source-C-CXX/56/2948.c'
source_filename = "source-C-CXX/56/2948.c"
target datalayout = "e-m:e-p270:32:32-p271:32:32-p272:64:64-i64:64-f80:128-n8:16:32:64-S128"
target triple = "x86_64-pc-linux-gnu"

@.str = private unnamed_addr constant [3 x i8] c"%d\00", align 1

; Function Attrs: nounwind sspstrong uwtable
define dso_local i32 @main() local_unnamed_addr #0 {
  %1 = alloca i32, align 4
  %2 = alloca [50 x i32], align 16
  %3 = alloca [50 x [32 x i8]], align 16
  %4 = bitcast i32* %1 to i8*
  call void @llvm.lifetime.start.p0i8(i64 4, i8* nonnull %4) #7
  %5 = bitcast [50 x i32]* %2 to i8*
  call void @llvm.lifetime.start.p0i8(i64 200, i8* nonnull %5) #7
  %6 = getelementptr inbounds [50 x [32 x i8]], [50 x [32 x i8]]* %3, i64 0, i64 0, i64 0
  call void @llvm.lifetime.start.p0i8(i64 1600, i8* nonnull %6) #7
  call void @llvm.memset.p0i8.i64(i8* noundef nonnull align 16 dereferenceable(1600) %6, i8 0, i64 1600, i1 false)
  store i8 48, i8* %6, align 16
  %7 = getelementptr inbounds [50 x [32 x i8]], [50 x [32 x i8]]* %3, i64 0, i64 0, i64 1
  store i8 48, i8* %7, align 1
  %8 = getelementptr inbounds [50 x [32 x i8]], [50 x [32 x i8]]* %3, i64 0, i64 0, i64 2
  store i8 48, i8* %8, align 2
  %9 = call i32 (i8*, ...) @__isoc99_scanf(i8* getelementptr inbounds ([3 x i8], [3 x i8]* @.str, i64 0, i64 0), i32* nonnull %1)
  %10 = load i32, i32* %1, align 4, !tbaa !5
  %11 = icmp slt i32 %10, 0
  br i1 %11, label %55, label %17

12:                                               ; preds = %17
  %13 = icmp slt i32 %25, 0
  br i1 %13, label %55, label %14

14:                                               ; preds = %12
  %15 = add nuw i32 %25, 1
  %16 = zext i32 %15 to i64
  br label %29

17:                                               ; preds = %0, %17
  %18 = phi i64 [ %24, %17 ], [ 0, %0 ]
  %19 = getelementptr inbounds [50 x [32 x i8]], [50 x [32 x i8]]* %3, i64 0, i64 %18, i64 0
  %20 = call i32 (i8*, ...) bitcast (i32 (...)* @gets to i32 (i8*, ...)*)(i8* nonnull %19) #7
  %21 = call i64 @strlen(i8* noundef nonnull %19) #8
  %22 = trunc i64 %21 to i32
  %23 = getelementptr inbounds [50 x i32], [50 x i32]* %2, i64 0, i64 %18
  store i32 %22, i32* %23, align 4, !tbaa !5
  %24 = add nuw nsw i64 %18, 1
  %25 = load i32, i32* %1, align 4, !tbaa !5
  %26 = sext i32 %25 to i64
  %27 = icmp slt i64 %18, %26
  br i1 %27, label %17, label %12, !llvm.loop !9

28:                                               ; preds = %44
  br i1 %13, label %55, label %47

29:                                               ; preds = %14, %44
  %30 = phi i64 [ 0, %14 ], [ %45, %44 ]
  %31 = getelementptr inbounds [50 x i32], [50 x i32]* %2, i64 0, i64 %30
  %32 = load i32, i32* %31, align 4, !tbaa !5
  %33 = add nsw i32 %32, -1
  %34 = sext i32 %33 to i64
  %35 = getelementptr inbounds [50 x [32 x i8]], [50 x [32 x i8]]* %3, i64 0, i64 %30, i64 %34
  %36 = load i8, i8* %35, align 1, !tbaa !11
  switch i8 %36, label %44 [
    i8 103, label %39
    i8 114, label %37
    i8 121, label %38
  ]

37:                                               ; preds = %29
  br label %39

38:                                               ; preds = %29
  br label %39

39:                                               ; preds = %29, %38, %37
  %40 = phi i32 [ -2, %37 ], [ -2, %38 ], [ -3, %29 ]
  %41 = add nsw i32 %32, %40
  %42 = sext i32 %41 to i64
  %43 = getelementptr inbounds [50 x [32 x i8]], [50 x [32 x i8]]* %3, i64 0, i64 %30, i64 %42
  store i8 0, i8* %43, align 1, !tbaa !11
  br label %44

44:                                               ; preds = %39, %29
  %45 = add nuw nsw i64 %30, 1
  %46 = icmp eq i64 %45, %16
  br i1 %46, label %28, label %29, !llvm.loop !12

47:                                               ; preds = %28, %47
  %48 = phi i64 [ %51, %47 ], [ 0, %28 ]
  %49 = getelementptr inbounds [50 x [32 x i8]], [50 x [32 x i8]]* %3, i64 0, i64 %48, i64 0
  %50 = call i32 @puts(i8* nonnull %49)
  %51 = add nuw nsw i64 %48, 1
  %52 = load i32, i32* %1, align 4, !tbaa !5
  %53 = sext i32 %52 to i64
  %54 = icmp slt i64 %48, %53
  br i1 %54, label %47, label %55, !llvm.loop !13

55:                                               ; preds = %47, %12, %0, %28
  call void @llvm.lifetime.end.p0i8(i64 1600, i8* nonnull %6) #7
  call void @llvm.lifetime.end.p0i8(i64 200, i8* nonnull %5) #7
  call void @llvm.lifetime.end.p0i8(i64 4, i8* nonnull %4) #7
  ret i32 0
}

; Function Attrs: argmemonly mustprogress nofree nosync nounwind willreturn
declare void @llvm.lifetime.start.p0i8(i64 immarg, i8* nocapture) #1

; Function Attrs: argmemonly mustprogress nofree nounwind willreturn writeonly
declare void @llvm.memset.p0i8.i64(i8* nocapture writeonly, i8, i64, i1 immarg) #2

; Function Attrs: nofree nounwind
declare noundef i32 @__isoc99_scanf(i8* nocapture noundef readonly, ...) local_unnamed_addr #3

declare i32 @gets(...) local_unnamed_addr #4

; Function Attrs: argmemonly mustprogress nofree nounwind readonly willreturn
declare i64 @strlen(i8* nocapture) local_unnamed_addr #5

; Function Attrs: argmemonly mustprogress nofree nosync nounwind willreturn
declare void @llvm.lifetime.end.p0i8(i64 immarg, i8* nocapture) #1

; Function Attrs: nofree nounwind
declare noundef i32 @puts(i8* nocapture noundef readonly) local_unnamed_addr #6


!llvm.module.flags = !{!0, !1, !2, !3}
!llvm.ident = !{!4}

!0 = !{i32 1, !"wchar_size", i32 4}
!1 = !{i32 7, !"PIC Level", i32 2}
!2 = !{i32 7, !"PIE Level", i32 2}
!3 = !{i32 7, !"uwtable", i32 1}
!4 = !{!"clang version 13.0.0"}
!5 = !{!6, !6, i64 0}
!6 = !{!"int", !7, i64 0}
!7 = !{!"omnipotent char", !8, i64 0}
!8 = !{!"Simple C/C++ TBAA"}
!9 = distinct !{!9, !10}
!10 = !{!"llvm.loop.mustprogress"}
!11 = !{!7, !7, i64 0}
!12 = distinct !{!12, !10}
!13 = distinct !{!13, !10}
